target datalayout = "e-m:e-p270:32:32-p271:32:32-p272:64:64-i64:64-i128:128-f80:128-n8:16:32:64-S128"
target triple = "x86_64-pc-linux-gnu"

%struct.archive_read = type { %struct.archive, ptr, i32, i64, i64, %struct.archive_read_client, [16 x %struct.archive_read_filter_bidder], ptr, i32, i64, i32, i32, [16 x %struct.archive_format_descriptor], ptr, ptr, ptr, %struct.anon }
%struct.archive = type { i32, i32, ptr, i32, ptr, i32, i32, ptr, %struct.archive_string, ptr, i32, i32, ptr, ptr, i64, i64, i64, i8, i64 }
%struct.archive_string = type { ptr, i64, i64 }
%struct.archive_read_client = type { ptr, ptr, ptr, ptr, ptr, ptr, i32, i32, i64, ptr }
%struct.archive_read_filter_bidder = type { ptr, ptr, ptr }
%struct.archive_format_descriptor = type { ptr, ptr, ptr, ptr, ptr, ptr, ptr, ptr, ptr, ptr, ptr }
%struct.anon = type { ptr, ptr, i32, ptr, ptr }
%struct.ar = type { i64, i64, i64, i64, ptr, i64, i8 }

@.str.13 = private unnamed_addr constant [21 x i8] c"Invalid string table\00", align 1

; Function Attrs: nounwind uwtable
define internal i32 @ar_parse_gnu_filename_table(ptr noundef %0) #0 {
  %2 = alloca i32, align 4
  %3 = alloca ptr, align 8
  %4 = alloca ptr, align 8
  %5 = alloca ptr, align 8
  %6 = alloca i64, align 8
  %7 = alloca i32, align 4
  store ptr %0, ptr %3, align 8, !tbaa !9
  call void @llvm.lifetime.start.p0(i64 8, ptr %4) #8
  call void @llvm.lifetime.start.p0(i64 8, ptr %5) #8
  call void @llvm.lifetime.start.p0(i64 8, ptr %6) #8
  %8 = load ptr, ptr %3, align 8, !tbaa !9
  %9 = getelementptr inbounds nuw %struct.archive_read, ptr %8, i32 0, i32 13
  %10 = load ptr, ptr %9, align 8, !tbaa !22
  %11 = getelementptr inbounds nuw %struct.archive_format_descriptor, ptr %10, i32 0, i32 0
  %12 = load ptr, ptr %11, align 8, !tbaa !36
  store ptr %12, ptr %4, align 8, !tbaa !13
  %13 = load ptr, ptr %4, align 8, !tbaa !13
  %14 = getelementptr inbounds nuw %struct.ar, ptr %13, i32 0, i32 5
  %15 = load i64, ptr %14, align 8, !tbaa !52
  store i64 %15, ptr %6, align 8, !tbaa !40
  %16 = load ptr, ptr %4, align 8, !tbaa !13
  %17 = getelementptr inbounds nuw %struct.ar, ptr %16, i32 0, i32 4
  %18 = load ptr, ptr %17, align 8, !tbaa !15
  store ptr %18, ptr %5, align 8, !tbaa !47
  br label %19

19:                                               ; preds = %44, %1
  %20 = load ptr, ptr %5, align 8, !tbaa !47
  %21 = load ptr, ptr %4, align 8, !tbaa !13
  %22 = getelementptr inbounds nuw %struct.ar, ptr %21, i32 0, i32 4
  %23 = load ptr, ptr %22, align 8, !tbaa !15
  %24 = load i64, ptr %6, align 8, !tbaa !40
  %25 = getelementptr inbounds nuw i8, ptr %23, i64 %24
  %26 = getelementptr inbounds i8, ptr %25, i64 -1
  %27 = icmp ult ptr %20, %26
  br i1 %27, label %28, label %47

28:                                               ; preds = %19
  %29 = load ptr, ptr %5, align 8, !tbaa !47
  %30 = load i8, ptr %29, align 1, !tbaa !48
  %31 = sext i8 %30 to i32
  %32 = icmp eq i32 %31, 47
  br i1 %32, label %33, label %43

33:                                               ; preds = %28
  %34 = load ptr, ptr %5, align 8, !tbaa !47
  %35 = getelementptr inbounds nuw i8, ptr %34, i32 1
  store ptr %35, ptr %5, align 8, !tbaa !47
  store i8 0, ptr %34, align 1, !tbaa !48
  %36 = load ptr, ptr %5, align 8, !tbaa !47
  %37 = load i8, ptr %36, align 1, !tbaa !48
  %38 = sext i8 %37 to i32
  %39 = icmp ne i32 %38, 10
  br i1 %39, label %40, label %41

40:                                               ; preds = %33
  br label %73

41:                                               ; preds = %33
  %42 = load ptr, ptr %5, align 8, !tbaa !47
  store i8 0, ptr %42, align 1, !tbaa !48
  br label %43

43:                                               ; preds = %41, %28
  br label %44

44:                                               ; preds = %43
  %45 = load ptr, ptr %5, align 8, !tbaa !47
  %46 = getelementptr inbounds nuw i8, ptr %45, i32 1
  store ptr %46, ptr %5, align 8, !tbaa !47
  br label %19, !llvm.loop !55

47:                                               ; preds = %19
  %48 = load ptr, ptr %5, align 8, !tbaa !47
  %49 = load ptr, ptr %4, align 8, !tbaa !13
  %50 = getelementptr inbounds nuw %struct.ar, ptr %49, i32 0, i32 4
  %51 = load ptr, ptr %50, align 8, !tbaa !15
  %52 = load i64, ptr %6, align 8, !tbaa !40
  %53 = getelementptr inbounds nuw i8, ptr %51, i64 %52
  %54 = icmp ne ptr %48, %53
  br i1 %54, label %55, label %66

55:                                               ; preds = %47
  %56 = load ptr, ptr %5, align 8, !tbaa !47
  %57 = load i8, ptr %56, align 1, !tbaa !48
  %58 = sext i8 %57 to i32
  %59 = icmp ne i32 %58, 10
  br i1 %59, label %60, label %66

60:                                               ; preds = %55
  %61 = load ptr, ptr %5, align 8, !tbaa !47
  %62 = load i8, ptr %61, align 1, !tbaa !48
  %63 = sext i8 %62 to i32
  %64 = icmp ne i32 %63, 96
  br i1 %64, label %65, label %66

65:                                               ; preds = %60
  br label %73

66:                                               ; preds = %60, %55, %47
  %67 = load ptr, ptr %4, align 8, !tbaa !13
  %68 = getelementptr inbounds nuw %struct.ar, ptr %67, i32 0, i32 4
  %69 = load ptr, ptr %68, align 8, !tbaa !15
  %70 = load i64, ptr %6, align 8, !tbaa !40
  %71 = sub i64 %70, 1
  %72 = getelementptr inbounds nuw i8, ptr %69, i64 %71
  store i8 0, ptr %72, align 1, !tbaa !48
  store i32 0, ptr %2, align 4
  store i32 1, ptr %7, align 4
  br label %81

73:                                               ; preds = %65, %40
  %74 = load ptr, ptr %3, align 8, !tbaa !9
  %75 = getelementptr inbounds nuw %struct.archive_read, ptr %74, i32 0, i32 0
  call void (ptr, i32, ptr, ...) @archive_set_error(ptr noundef %75, i32 noundef 22, ptr noundef @.str.13)
  %76 = load ptr, ptr %4, align 8, !tbaa !13
  %77 = getelementptr inbounds nuw %struct.ar, ptr %76, i32 0, i32 4
  %78 = load ptr, ptr %77, align 8, !tbaa !15
  call void @free(ptr noundef %78) #8
  %79 = load ptr, ptr %4, align 8, !tbaa !13
  %80 = getelementptr inbounds nuw %struct.ar, ptr %79, i32 0, i32 4
  store ptr null, ptr %80, align 8, !tbaa !15
  store i32 -30, ptr %2, align 4
  store i32 1, ptr %7, align 4
  br label %81

81:                                               ; preds = %73, %66
  call void @llvm.lifetime.end.p0(i64 8, ptr %6) #8
  call void @llvm.lifetime.end.p0(i64 8, ptr %5) #8
  call void @llvm.lifetime.end.p0(i64 8, ptr %4) #8
  %82 = load i32, ptr %2, align 4
  ret i32 %82
}