; Function Attrs: nounwind uwtable
define internal fastcc range(i32 -30, 1) i32 @ar_parse_gnu_filename_table(ptr noundef %0) unnamed_addr #0 {
  %2 = getelementptr inbounds nuw i8, ptr %0, i64 2072
  %3 = load ptr, ptr %2, align 8, !tbaa !4
  %4 = load ptr, ptr %3, align 8, !tbaa !25
  %5 = getelementptr inbounds nuw i8, ptr %4, i64 40
  %6 = load i64, ptr %5, align 8, !tbaa !37
  %7 = getelementptr inbounds nuw i8, ptr %4, i64 32
  %8 = load ptr, ptr %7, align 8, !tbaa !36
  %9 = getelementptr inbounds nuw i8, ptr %8, i64 %6
  %10 = getelementptr inbounds i8, ptr %9, i64 -1
  %11 = icmp ult ptr %8, %10
  br i1 %11, label %.lr.ph, label %._crit_edge

.lr.ph:                                           ; preds = %1, %19
  %12 = phi ptr [ %20, %19 ], [ %8, %1 ]
  %.02130 = phi ptr [ %21, %19 ], [ %8, %1 ]
  %13 = load i8, ptr %.02130, align 1, !tbaa !30
  %14 = icmp eq i8 %13, 47
  br i1 %14, label %15, label %19

15:                                               ; preds = %.lr.ph
  %16 = getelementptr inbounds nuw i8, ptr %.02130, i64 1
  store i8 0, ptr %.02130, align 1, !tbaa !30
  %17 = load i8, ptr %16, align 1, !tbaa !30
  %.not25 = icmp eq i8 %17, 10
  br i1 %.not25, label %18, label %.loopexit

18:                                               ; preds = %15
  store i8 0, ptr %16, align 1, !tbaa !30
  %.pre = load ptr, ptr %7, align 8, !tbaa !36
  br label %19

19:                                               ; preds = %.lr.ph, %18
  %20 = phi ptr [ %.pre, %18 ], [ %12, %.lr.ph ]
  %.1 = phi ptr [ %16, %18 ], [ %.02130, %.lr.ph ]
  %21 = getelementptr inbounds nuw i8, ptr %.1, i64 1
  %22 = getelementptr inbounds nuw i8, ptr %20, i64 %6
  %23 = getelementptr inbounds i8, ptr %22, i64 -1
  %24 = icmp ult ptr %21, %23
  br i1 %24, label %.lr.ph, label %._crit_edge, !llvm.loop !46

._crit_edge:                                      ; preds = %19, %1
  %.021.lcssa = phi ptr [ %8, %1 ], [ %21, %19 ]
  %.lcssa27 = phi ptr [ %9, %1 ], [ %22, %19 ]
  %.lcssa = phi ptr [ %10, %1 ], [ %23, %19 ]
  %.not = icmp eq ptr %.021.lcssa, %.lcssa27
  br i1 %.not, label %27, label %25

25:                                               ; preds = %._crit_edge
  %26 = load i8, ptr %.021.lcssa, align 1, !tbaa !30
  switch i8 %26, label %.loopexit [
    i8 10, label %27
    i8 96, label %27
  ]

27:                                               ; preds = %25, %25, %._crit_edge
  store i8 0, ptr %.lcssa, align 1, !tbaa !30
  br label %29

.loopexit:                                        ; preds = %15, %25
  tail call void (ptr, i32, ptr, ...) @archive_set_error(ptr noundef %0, i32 noundef 22, ptr noundef nonnull @.str.13) #13
  %28 = load ptr, ptr %7, align 8, !tbaa !36
  tail call void @free(ptr noundef %28) #13
  store ptr null, ptr %7, align 8, !tbaa !36
  br label %29

29:                                               ; preds = %.loopexit, %27
  %.0 = phi i32 [ -30, %.loopexit ], [ 0, %27 ]
  ret i32 %.0
}